; Function Attrs: mustprogress uwtable
define dso_local { <2 x float>, <2 x float> } @_ZN20btConvexHullInternal14getCoordinatesEPKNS_6VertexE(ptr noundef nonnull readonly align 8 captures(none) dereferenceable(192) %0, ptr noundef %1) local_unnamed_addr #8 align 2 {
  %3 = alloca %class.btVector3, align 4
  call void @llvm.lifetime.start.p0(i64 16, ptr nonnull %3) #19
  %4 = getelementptr inbounds nuw i8, ptr %1, i64 116
  %5 = load i32, ptr %4, align 4, !tbaa !146
  %6 = icmp sgt i32 %5, -1
  br i1 %6, label %_ZNK20btConvexHullInternal6Vertex6xvalueEv.exit.thread, label %_ZNK20btConvexHullInternal6Vertex6xvalueEv.exit

_ZNK20btConvexHullInternal6Vertex6xvalueEv.exit.thread: ; preds = %2
  %7 = getelementptr inbounds nuw i8, ptr %1, i64 104
  %8 = load i32, ptr %7, align 8, !tbaa !60
  %9 = sitofp i32 %8 to float
  %10 = getelementptr inbounds nuw i8, ptr %0, i64 168
  %11 = load i32, ptr %10, align 8, !tbaa !116
  %12 = sext i32 %11 to i64
  %13 = getelementptr inbounds float, ptr %3, i64 %12
  store float %9, ptr %13, align 4, !tbaa !111
  br label %_ZNK20btConvexHullInternal6Vertex6yvalueEv.exit.thread

_ZNK20btConvexHullInternal6Vertex6xvalueEv.exit:  ; preds = %2
  %14 = getelementptr inbounds nuw i8, ptr %1, i64 40
  %15 = tail call noundef float @_ZNK20btConvexHullInternal6Int1288toScalarEv(ptr noundef nonnull align 8 dereferenceable(64) %14)
  %16 = getelementptr inbounds nuw i8, ptr %1, i64 88
  %17 = tail call noundef float @_ZNK20btConvexHullInternal6Int1288toScalarEv(ptr noundef nonnull align 8 dereferenceable(16) %16)
  %18 = fdiv float %15, %17
  %.pre = load i32, ptr %4, align 4, !tbaa !146
  %19 = icmp sgt i32 %.pre, -1
  %20 = getelementptr inbounds nuw i8, ptr %0, i64 168
  %21 = load i32, ptr %20, align 8, !tbaa !116
  %22 = sext i32 %21 to i64
  %23 = getelementptr inbounds float, ptr %3, i64 %22
  store float %18, ptr %23, align 4, !tbaa !111
  br i1 %19, label %_ZNK20btConvexHullInternal6Vertex6yvalueEv.exit.thread, label %_ZNK20btConvexHullInternal6Vertex6yvalueEv.exit

_ZNK20btConvexHullInternal6Vertex6yvalueEv.exit.thread: ; preds = %_ZNK20btConvexHullInternal6Vertex6xvalueEv.exit, %_ZNK20btConvexHullInternal6Vertex6xvalueEv.exit.thread
  %24 = getelementptr inbounds nuw i8, ptr %1, i64 108
  %25 = load i32, ptr %24, align 4, !tbaa !64
  %26 = sitofp i32 %25 to float
  %27 = getelementptr inbounds nuw i8, ptr %0, i64 172
  %28 = load i32, ptr %27, align 4, !tbaa !114
  %29 = sext i32 %28 to i64
  %30 = getelementptr inbounds float, ptr %3, i64 %29
  store float %26, ptr %30, align 4, !tbaa !111
  br label %41

_ZNK20btConvexHullInternal6Vertex6yvalueEv.exit:  ; preds = %_ZNK20btConvexHullInternal6Vertex6xvalueEv.exit
  %31 = getelementptr inbounds nuw i8, ptr %1, i64 56
  %32 = tail call noundef float @_ZNK20btConvexHullInternal6Int1288toScalarEv(ptr noundef nonnull align 8 dereferenceable(16) %31)
  %33 = getelementptr inbounds nuw i8, ptr %1, i64 88
  %34 = tail call noundef float @_ZNK20btConvexHullInternal6Int1288toScalarEv(ptr noundef nonnull align 8 dereferenceable(16) %33)
  %35 = fdiv float %32, %34
  %.pre9 = load i32, ptr %4, align 4, !tbaa !146
  %36 = icmp sgt i32 %.pre9, -1
  %37 = getelementptr inbounds nuw i8, ptr %0, i64 172
  %38 = load i32, ptr %37, align 4, !tbaa !114
  %39 = sext i32 %38 to i64
  %40 = getelementptr inbounds float, ptr %3, i64 %39
  store float %35, ptr %40, align 4, !tbaa !111
  br i1 %36, label %41, label %45

41:                                               ; preds = %_ZNK20btConvexHullInternal6Vertex6yvalueEv.exit.thread, %_ZNK20btConvexHullInternal6Vertex6yvalueEv.exit
  %42 = getelementptr inbounds nuw i8, ptr %1, i64 112
  %43 = load i32, ptr %42, align 8, !tbaa !80
  %44 = sitofp i32 %43 to float
  br label %_ZNK20btConvexHullInternal6Vertex6zvalueEv.exit

45:                                               ; preds = %_ZNK20btConvexHullInternal6Vertex6yvalueEv.exit
  %46 = getelementptr inbounds nuw i8, ptr %1, i64 72
  %47 = tail call noundef float @_ZNK20btConvexHullInternal6Int1288toScalarEv(ptr noundef nonnull align 8 dereferenceable(16) %46)
  %48 = getelementptr inbounds nuw i8, ptr %1, i64 88
  %49 = tail call noundef float @_ZNK20btConvexHullInternal6Int1288toScalarEv(ptr noundef nonnull align 8 dereferenceable(16) %48)
  %50 = fdiv float %47, %49
  br label %_ZNK20btConvexHullInternal6Vertex6zvalueEv.exit

_ZNK20btConvexHullInternal6Vertex6zvalueEv.exit:  ; preds = %41, %45
  %51 = phi float [ %44, %41 ], [ %50, %45 ]
  %52 = getelementptr inbounds nuw i8, ptr %0, i64 164
  %53 = load i32, ptr %52, align 4, !tbaa !115
  %54 = sext i32 %53 to i64
  %55 = getelementptr inbounds float, ptr %3, i64 %54
  store float %51, ptr %55, align 4, !tbaa !111
  %56 = load float, ptr %3, align 4, !tbaa !111
  %57 = load float, ptr %0, align 8, !tbaa !111
  %58 = fmul float %56, %57
  %59 = getelementptr inbounds nuw i8, ptr %3, i64 4
  %60 = load float, ptr %59, align 4, !tbaa !111
  %61 = getelementptr inbounds nuw i8, ptr %0, i64 4
  %62 = load float, ptr %61, align 4, !tbaa !111
  %63 = fmul float %60, %62
  %64 = getelementptr inbounds nuw i8, ptr %3, i64 8
  %65 = load float, ptr %64, align 4, !tbaa !111
  %66 = getelementptr inbounds nuw i8, ptr %0, i64 8
  %67 = load float, ptr %66, align 8, !tbaa !111
  %68 = fmul float %65, %67
  %69 = getelementptr inbounds nuw i8, ptr %0, i64 16
  %70 = load float, ptr %69, align 8, !tbaa !111
  %71 = fadd float %58, %70
  %72 = getelementptr inbounds nuw i8, ptr %0, i64 20
  %73 = load float, ptr %72, align 4, !tbaa !111
  %74 = fadd float %63, %73
  %75 = getelementptr inbounds nuw i8, ptr %0, i64 24
  %76 = load float, ptr %75, align 8, !tbaa !111
  %77 = fadd float %68, %76
  %.sroa.0.0.vec.insert.i4 = insertelement <2 x float> poison, float %71, i64 0
  %.sroa.0.4.vec.insert.i5 = insertelement <2 x float> %.sroa.0.0.vec.insert.i4, float %74, i64 1
  %.sroa.3.12.vec.insert.i6 = insertelement <2 x float> <float poison, float 0.000000e+00>, float %77, i64 0
  %.fca.0.insert.i7 = insertvalue { <2 x float>, <2 x float> } poison, <2 x float> %.sroa.0.4.vec.insert.i5, 0
  %.fca.1.insert.i8 = insertvalue { <2 x float>, <2 x float> } %.fca.0.insert.i7, <2 x float> %.sroa.3.12.vec.insert.i6, 1
  call void @llvm.lifetime.end.p0(i64 16, ptr nonnull %3) #19
  ret { <2 x float>, <2 x float> } %.fca.1.insert.i8
}